target datalayout = "e-m:e-p270:32:32-p271:32:32-p272:64:64-i64:64-i128:128-f80:128-n8:16:32:64-S128"
target triple = "x86_64-pc-linux-gnu"

%struct.expert_field = type { i32, i32 }

@hf_rtcp_app_data_padding = internal global i32 0, align 4
@hf_rtcp_mcptt_loc_type = internal global i32 0, align 4
@hf_rtcp_mcptt_ecgi_eci = internal global i32 0, align 4
@hf_rtcp_mcptt_tac = internal global i32 0, align 4
@hf_rtcp_mcptt_mbms_serv_area = internal global i32 0, align 4
@hf_rtcp_mcptt_mbsfn_area_id = internal global i32 0, align 4
@hf_rtcp_mcptt_lat = internal global i32 0, align 4
@hf_rtcp_mcptt_long = internal global i32 0, align 4
@ett_rtcp_mcptt_eci = internal global i32 0, align 4
@ei_rtcp_mcptt_location_type = internal global %struct.expert_field zeroinitializer, align 4
@dissect_rtcp_mcptt_location_ie.ECGI_flags = internal constant [3 x ptr] [ptr @hf_rtcp_mcptt_enodebid, ptr @hf_rtcp_mcptt_cellid, ptr null], align 16

; Function Attrs: null_pointer_is_valid sspstrong uwtable
define internal i32 @dissect_rtcp_mcptt_location_ie(ptr noundef %0, ptr noundef %1, i32 noundef %2, ptr noundef %3, i32 noundef %4) #0 {
  %6 = alloca ptr, align 8
  %7 = alloca ptr, align 8
  %8 = alloca i32, align 4
  %9 = alloca ptr, align 8
  %10 = alloca i32, align 4
  %11 = alloca i32, align 4
  %12 = alloca i32, align 4
  store ptr %0, ptr %6, align 8
  store ptr %1, ptr %7, align 8
  store i32 %2, ptr %8, align 4
  store ptr %3, ptr %9, align 8
  store i32 %4, ptr %10, align 4
  call void @llvm.lifetime.start.p0(i64 4, ptr %11) #9
  call void @llvm.lifetime.start.p0(i64 4, ptr %12) #9
  %13 = load i32, ptr %8, align 4
  store i32 %13, ptr %12, align 4
  %14 = load ptr, ptr %9, align 8
  %15 = load i32, ptr @hf_rtcp_mcptt_loc_type, align 4
  %16 = load ptr, ptr %6, align 8
  %17 = load i32, ptr %8, align 4
  %18 = call ptr @proto_tree_add_item_ret_uint(ptr noundef %14, i32 noundef %15, ptr noundef %16, i32 noundef %17, i32 noundef 1, i32 noundef 0, ptr noundef %11)
  %19 = load i32, ptr %8, align 4
  %20 = add i32 %19, 1
  store i32 %20, ptr %8, align 4
  %21 = load i32, ptr %11, align 4
  switch i32 %21, label %92 [
    i32 0, label %99
    i32 1, label %22
    i32 2, label %38
    i32 3, label %53
    i32 4, label %61
    i32 5, label %69
    i32 6, label %77
  ]

22:                                               ; preds = %5
  %23 = load ptr, ptr %6, align 8
  %24 = load ptr, ptr %7, align 8
  %25 = load ptr, ptr %9, align 8
  %26 = load i32, ptr %8, align 4
  %27 = call ptr @dissect_e212_mcc_mnc_wmem_packet_str(ptr noundef %23, ptr noundef %24, ptr noundef %25, i32 noundef %26, i32 noundef 5, i1 noundef zeroext true)
  %28 = load i32, ptr %8, align 4
  %29 = add i32 %28, 3
  store i32 %29, ptr %8, align 4
  %30 = load ptr, ptr %9, align 8
  %31 = load ptr, ptr %6, align 8
  %32 = load i32, ptr %8, align 4
  %33 = load i32, ptr @hf_rtcp_mcptt_ecgi_eci, align 4
  %34 = load i32, ptr @ett_rtcp_mcptt_eci, align 4
  %35 = call ptr @proto_tree_add_bitmask(ptr noundef %30, ptr noundef %31, i32 noundef %32, i32 noundef %33, i32 noundef %34, ptr noundef @dissect_rtcp_mcptt_location_ie.ECGI_flags, i32 noundef 0)
  %36 = load i32, ptr %8, align 4
  %37 = add i32 %36, 4
  store i32 %37, ptr %8, align 4
  br label %99

38:                                               ; preds = %5
  %39 = load ptr, ptr %6, align 8
  %40 = load ptr, ptr %7, align 8
  %41 = load ptr, ptr %9, align 8
  %42 = load i32, ptr %8, align 4
  %43 = call ptr @dissect_e212_mcc_mnc_wmem_packet_str(ptr noundef %39, ptr noundef %40, ptr noundef %41, i32 noundef %42, i32 noundef 5, i1 noundef zeroext true)
  %44 = load i32, ptr %8, align 4
  %45 = add i32 %44, 3
  store i32 %45, ptr %8, align 4
  %46 = load ptr, ptr %9, align 8
  %47 = load i32, ptr @hf_rtcp_mcptt_tac, align 4
  %48 = load ptr, ptr %6, align 8
  %49 = load i32, ptr %8, align 4
  %50 = call ptr @proto_tree_add_item(ptr noundef %46, i32 noundef %47, ptr noundef %48, i32 noundef %49, i32 noundef 2, i32 noundef 0)
  %51 = load i32, ptr %8, align 4
  %52 = add i32 %51, 2
  store i32 %52, ptr %8, align 4
  br label %99

53:                                               ; preds = %5
  %54 = load ptr, ptr %6, align 8
  %55 = load ptr, ptr %7, align 8
  %56 = load ptr, ptr %9, align 8
  %57 = load i32, ptr %8, align 4
  %58 = call ptr @dissect_e212_mcc_mnc_wmem_packet_str(ptr noundef %54, ptr noundef %55, ptr noundef %56, i32 noundef %57, i32 noundef 5, i1 noundef zeroext true)
  %59 = load i32, ptr %8, align 4
  %60 = add i32 %59, 3
  store i32 %60, ptr %8, align 4
  br label %99

61:                                               ; preds = %5
  %62 = load ptr, ptr %9, align 8
  %63 = load i32, ptr @hf_rtcp_mcptt_mbms_serv_area, align 4
  %64 = load ptr, ptr %6, align 8
  %65 = load i32, ptr %8, align 4
  %66 = call ptr @proto_tree_add_item(ptr noundef %62, i32 noundef %63, ptr noundef %64, i32 noundef %65, i32 noundef 2, i32 noundef 0)
  %67 = load i32, ptr %8, align 4
  %68 = add i32 %67, 2
  store i32 %68, ptr %8, align 4
  br label %99

69:                                               ; preds = %5
  %70 = load ptr, ptr %9, align 8
  %71 = load i32, ptr @hf_rtcp_mcptt_mbsfn_area_id, align 4
  %72 = load ptr, ptr %6, align 8
  %73 = load i32, ptr %8, align 4
  %74 = call ptr @proto_tree_add_item(ptr noundef %70, i32 noundef %71, ptr noundef %72, i32 noundef %73, i32 noundef 1, i32 noundef 0)
  %75 = load i32, ptr %8, align 4
  %76 = add i32 %75, 1
  store i32 %76, ptr %8, align 4
  br label %99

77:                                               ; preds = %5
  %78 = load ptr, ptr %9, align 8
  %79 = load i32, ptr @hf_rtcp_mcptt_lat, align 4
  %80 = load ptr, ptr %6, align 8
  %81 = load i32, ptr %8, align 4
  %82 = call ptr @proto_tree_add_item(ptr noundef %78, i32 noundef %79, ptr noundef %80, i32 noundef %81, i32 noundef 3, i32 noundef 0)
  %83 = load i32, ptr %8, align 4
  %84 = add i32 %83, 3
  store i32 %84, ptr %8, align 4
  %85 = load ptr, ptr %9, align 8
  %86 = load i32, ptr @hf_rtcp_mcptt_long, align 4
  %87 = load ptr, ptr %6, align 8
  %88 = load i32, ptr %8, align 4
  %89 = call ptr @proto_tree_add_item(ptr noundef %85, i32 noundef %86, ptr noundef %87, i32 noundef %88, i32 noundef 3, i32 noundef 0)
  %90 = load i32, ptr %8, align 4
  %91 = add i32 %90, 3
  store i32 %91, ptr %8, align 4
  br label %99

92:                                               ; preds = %5
  %93 = load ptr, ptr %9, align 8
  %94 = load ptr, ptr %7, align 8
  %95 = load ptr, ptr %6, align 8
  %96 = load i32, ptr %8, align 4
  %97 = sub i32 %96, 1
  %98 = call ptr @proto_tree_add_expert(ptr noundef %93, ptr noundef %94, ptr noundef @ei_rtcp_mcptt_location_type, ptr noundef %95, i32 noundef %97, i32 noundef 1)
  br label %99

99:                                               ; preds = %92, %77, %69, %61, %53, %38, %22, %5
  %100 = load i32, ptr %8, align 4
  %101 = load i32, ptr %12, align 4
  %102 = sub i32 %100, %101
  %103 = load i32, ptr %10, align 4
  %104 = icmp ne i32 %102, %103
  br i1 %104, label %105, label %119

105:                                              ; preds = %99
  %106 = load ptr, ptr %9, align 8
  %107 = load i32, ptr @hf_rtcp_app_data_padding, align 4
  %108 = load ptr, ptr %6, align 8
  %109 = load i32, ptr %8, align 4
  %110 = load i32, ptr %8, align 4
  %111 = load i32, ptr %12, align 4
  %112 = sub i32 %110, %111
  %113 = call ptr @proto_tree_add_item(ptr noundef %106, i32 noundef %107, ptr noundef %108, i32 noundef %109, i32 noundef %112, i32 noundef 0)
  %114 = load i32, ptr %8, align 4
  %115 = load i32, ptr %12, align 4
  %116 = sub i32 %114, %115
  %117 = load i32, ptr %8, align 4
  %118 = add i32 %117, %116
  store i32 %118, ptr %8, align 4
  br label %119

119:                                              ; preds = %105, %99
  %120 = load i32, ptr %8, align 4
  call void @llvm.lifetime.end.p0(i64 4, ptr %12) #9
  call void @llvm.lifetime.end.p0(i64 4, ptr %11) #9
  ret i32 %120
}