; Function Attrs: null_pointer_is_valid sspstrong uwtable
define internal fastcc noundef i32 @dissect_rtcp_mcptt_location_ie(ptr noundef %0, ptr noundef %1, i32 noundef %2, ptr noundef %3, i32 noundef %4) unnamed_addr #0 {
  %6 = alloca i32, align 4
  call void @llvm.lifetime.start.p0(i64 4, ptr nonnull %6) #9
  %7 = load i32, ptr @hf_rtcp_mcptt_loc_type, align 4
  %8 = call ptr @proto_tree_add_item_ret_uint(ptr noundef %3, i32 noundef %7, ptr noundef %0, i32 noundef %2, i32 noundef 1, i32 noundef 0, ptr noundef nonnull %6)
  %9 = add i32 %2, 1
  %10 = load i32, ptr %6, align 4
  switch i32 %10, label %42 [
    i32 0, label %44
    i32 1, label %11
    i32 2, label %18
    i32 3, label %24
    i32 4, label %27
    i32 5, label %31
    i32 6, label %35
  ]

11:                                               ; preds = %5
  %12 = call ptr @dissect_e212_mcc_mnc_wmem_packet_str(ptr noundef %0, ptr noundef %1, ptr noundef %3, i32 noundef %9, i32 noundef 5, i1 noundef zeroext true)
  %13 = add i32 %2, 4
  %14 = load i32, ptr @hf_rtcp_mcptt_ecgi_eci, align 4
  %15 = load i32, ptr @ett_rtcp_mcptt_eci, align 4
  %16 = call ptr @proto_tree_add_bitmask(ptr noundef %3, ptr noundef %0, i32 noundef %13, i32 noundef %14, i32 noundef %15, ptr noundef nonnull @dissect_rtcp_mcptt_location_ie.ECGI_flags, i32 noundef 0)
  %17 = add i32 %2, 8
  br label %44

18:                                               ; preds = %5
  %19 = call ptr @dissect_e212_mcc_mnc_wmem_packet_str(ptr noundef %0, ptr noundef %1, ptr noundef %3, i32 noundef %9, i32 noundef 5, i1 noundef zeroext true)
  %20 = add i32 %2, 4
  %21 = load i32, ptr @hf_rtcp_mcptt_tac, align 4
  %22 = call ptr @proto_tree_add_item(ptr noundef %3, i32 noundef %21, ptr noundef %0, i32 noundef %20, i32 noundef 2, i32 noundef 0)
  %23 = add i32 %2, 6
  br label %44

24:                                               ; preds = %5
  %25 = call ptr @dissect_e212_mcc_mnc_wmem_packet_str(ptr noundef %0, ptr noundef %1, ptr noundef %3, i32 noundef %9, i32 noundef 5, i1 noundef zeroext true)
  %26 = add i32 %2, 4
  br label %44

27:                                               ; preds = %5
  %28 = load i32, ptr @hf_rtcp_mcptt_mbms_serv_area, align 4
  %29 = call ptr @proto_tree_add_item(ptr noundef %3, i32 noundef %28, ptr noundef %0, i32 noundef %9, i32 noundef 2, i32 noundef 0)
  %30 = add i32 %2, 3
  br label %44

31:                                               ; preds = %5
  %32 = load i32, ptr @hf_rtcp_mcptt_mbsfn_area_id, align 4
  %33 = call ptr @proto_tree_add_item(ptr noundef %3, i32 noundef %32, ptr noundef %0, i32 noundef %9, i32 noundef 1, i32 noundef 0)
  %34 = add i32 %2, 2
  br label %44

35:                                               ; preds = %5
  %36 = load i32, ptr @hf_rtcp_mcptt_lat, align 4
  %37 = call ptr @proto_tree_add_item(ptr noundef %3, i32 noundef %36, ptr noundef %0, i32 noundef %9, i32 noundef 3, i32 noundef 0)
  %38 = add i32 %2, 4
  %39 = load i32, ptr @hf_rtcp_mcptt_long, align 4
  %40 = call ptr @proto_tree_add_item(ptr noundef %3, i32 noundef %39, ptr noundef %0, i32 noundef %38, i32 noundef 3, i32 noundef 0)
  %41 = add i32 %2, 7
  br label %44

42:                                               ; preds = %5
  %43 = call ptr @proto_tree_add_expert(ptr noundef %3, ptr noundef %1, ptr noundef nonnull @ei_rtcp_mcptt_location_type, ptr noundef %0, i32 noundef %2, i32 noundef 1)
  br label %44

44:                                               ; preds = %42, %35, %31, %27, %24, %18, %11, %5
  %.0 = phi i32 [ %9, %42 ], [ %41, %35 ], [ %34, %31 ], [ %30, %27 ], [ %26, %24 ], [ %23, %18 ], [ %17, %11 ], [ %9, %5 ]
  %45 = sub i32 %.0, %2
  %.not = icmp eq i32 %45, %4
  br i1 %.not, label %50, label %46

46:                                               ; preds = %44
  %47 = load i32, ptr @hf_rtcp_app_data_padding, align 4
  %48 = call ptr @proto_tree_add_item(ptr noundef %3, i32 noundef %47, ptr noundef %0, i32 noundef %.0, i32 noundef %45, i32 noundef 0)
  %49 = add i32 %45, %.0
  br label %50

50:                                               ; preds = %46, %44
  %.1 = phi i32 [ %49, %46 ], [ %.0, %44 ]
  call void @llvm.lifetime.end.p0(i64 4, ptr nonnull %6) #9
  ret i32 %.1
}